; Function Attrs: nounwind uwtable
define range(i32 -1, 1) i32 @H5PL__prepend_path(ptr noundef %0) local_unnamed_addr #0 {
  %2 = tail call fastcc i32 @H5PL__insert_at(ptr noundef %0, i32 noundef 0)
  %3 = icmp slt i32 %2, 0
  br i1 %3, label %4, label %8

4:                                                ; preds = %1
  %5 = load i64, ptr @H5E_PLUGIN_g, align 8
  %6 = load i64, ptr @H5E_CANTINSERT_g, align 8
  %7 = tail call i32 (ptr, ptr, i32, i64, i64, ptr, ...) @H5E_printf_stack(ptr noundef nonnull @.str, ptr noundef nonnull @__func__.H5PL__prepend_path, i32 noundef 422, i64 noundef %5, i64 noundef %6, ptr noundef nonnull @.str.8) #13
  br label %8

8:                                                ; preds = %1, %4
  %.0 = phi i32 [ -1, %4 ], [ 0, %1 ]
  ret i32 %.0
}